; Function Attrs: mustprogress uwtable
define void @_ZN6icu_7512SelectFormatC2ERKS0_(ptr noundef nonnull align 8 dereferenceable(456) %this, ptr noundef nonnull align 8 dereferenceable(456) %other) unnamed_addr #1 align 2 personality ptr @__gxx_personality_v0 {
entry:
  tail call void @_ZN6icu_756FormatC2ERKS0_(ptr noundef nonnull align 8 dereferenceable(322) %this, ptr noundef nonnull align 8 dereferenceable(322) %other)
  store ptr getelementptr inbounds ({ [11 x ptr] }, ptr @_ZTVN6icu_7512SelectFormatE, i64 0, i32 0, i64 2), ptr %this, align 8
  %msgPattern = getelementptr inbounds i8, ptr %this, i64 328
  %msgPattern2 = getelementptr inbounds i8, ptr %other, i64 328
  invoke void @_ZN6icu_7514MessagePatternC1ERKS0_(ptr noundef nonnull align 8 dereferenceable(127) %msgPattern, ptr noundef nonnull align 8 dereferenceable(127) %msgPattern2)
          to label %invoke.cont unwind label %lpad

invoke.cont:                                      ; preds = %entry
  ret void

lpad:                                             ; preds = %entry
  %0 = landingpad { ptr, i32 }
          cleanup
  tail call void @_ZN6icu_756FormatD2Ev(ptr noundef nonnull align 8 dereferenceable(322) %this) #10
  resume { ptr, i32 } %0
}